; Function Attrs: mustprogress nounwind uwtable
define internal noundef i32 @"_ZNSt17_Function_handlerIFjRKN5clang13SourceManagerERNS0_5LexerENS0_5TokenEEZNS0_7tooling12_GLOBAL__N_137getOffsetAfterHeaderGuardsAndCommentsEN4llvm9StringRefESB_RKNS8_12IncludeStyleEE3$_1E9_M_invokeERKSt9_Any_dataS3_S5_OS6_"(ptr nocapture nonnull readnone align 8 %0, ptr noundef nonnull align 8 dereferenceable(696) %1, ptr noundef nonnull align 8 dereferenceable(204) %2, ptr nocapture noundef nonnull readonly align 8 dereferenceable(20) %3) #0 align 2 {
  %5 = alloca %"class.std::optional.311", align 8
  %6 = alloca %"class.clang::Token", align 8
  call void @llvm.lifetime.start.p0(i64 24, ptr nonnull %6)
  call void @llvm.memcpy.p0.p0.i64(ptr noundef nonnull align 8 dereferenceable(24) %6, ptr noundef nonnull readonly align 8 dereferenceable(24) %3, i64 24, i1 false)
  call void @llvm.lifetime.start.p0(i64 24, ptr nonnull %5)
  store ptr @.str.20, ptr %5, align 8
  %.sroa.2.0..sroa_idx.i.i.i = getelementptr inbounds i8, ptr %5, i64 8
  store i64 4, ptr %.sroa.2.0..sroa_idx.i.i.i, align 8
  %7 = getelementptr inbounds nuw i8, ptr %5, i64 16
  store i8 1, ptr %7, align 8
  %8 = call fastcc noundef zeroext i1 @_ZN5clang7tooling12_GLOBAL__N_132checkAndConsumeDirectiveWithNameERNS_5LexerEN4llvm9StringRefERNS_5TokenESt8optionalIS5_E(ptr noundef nonnull align 8 dereferenceable(204) %2, ptr nonnull @.str.19, i64 6, ptr noundef nonnull align 8 dereferenceable(20) %6, ptr noundef nonnull byval(%"class.std::optional.311") align 8 %5)
  br i1 %8, label %9, label %"_ZSt10__invoke_rIjRZN5clang7tooling12_GLOBAL__N_137getOffsetAfterHeaderGuardsAndCommentsEN4llvm9StringRefES4_RKNS1_12IncludeStyleEE3$_1JRKNS0_13SourceManagerERNS0_5LexerENS0_5TokenEEENSt9enable_ifIX16is_invocable_r_vIT_T0_DpT1_EESH_E4typeEOSI_DpOSJ_.exit"

9:                                                ; preds = %4
  %10 = load i32, ptr %6, align 8
  %11 = call i64 @_ZNK5clang13SourceManager16getDecomposedLocENS_14SourceLocationE(ptr noundef nonnull align 8 dereferenceable(696) %1, i32 %10)
  %.sroa.1.0.extract.shift.i.i.i.i = lshr i64 %11, 32
  %.sroa.1.0.extract.trunc.i.i.i.i = trunc nuw i64 %.sroa.1.0.extract.shift.i.i.i.i to i32
  br label %"_ZSt10__invoke_rIjRZN5clang7tooling12_GLOBAL__N_137getOffsetAfterHeaderGuardsAndCommentsEN4llvm9StringRefES4_RKNS1_12IncludeStyleEE3$_1JRKNS0_13SourceManagerERNS0_5LexerENS0_5TokenEEENSt9enable_ifIX16is_invocable_r_vIT_T0_DpT1_EESH_E4typeEOSI_DpOSJ_.exit"

"_ZSt10__invoke_rIjRZN5clang7tooling12_GLOBAL__N_137getOffsetAfterHeaderGuardsAndCommentsEN4llvm9StringRefES4_RKNS1_12IncludeStyleEE3$_1JRKNS0_13SourceManagerERNS0_5LexerENS0_5TokenEEENSt9enable_ifIX16is_invocable_r_vIT_T0_DpT1_EESH_E4typeEOSI_DpOSJ_.exit": ; preds = %4, %9
  %.0.i.i.i = phi i32 [ %.sroa.1.0.extract.trunc.i.i.i.i, %9 ], [ 0, %4 ]
  call void @llvm.lifetime.end.p0(i64 24, ptr nonnull %6)
  call void @llvm.lifetime.end.p0(i64 24, ptr nonnull %5)
  ret i32 %.0.i.i.i
}